

Microchip MPLAB XC8 Assembler V2.05 build -831301201 
                                                                                               Tue Nov 26 14:29:28 2019

Microchip MPLAB XC8 C Compiler v2.05 (Free license) build 20181220022703 Og1 
     1                           	processor	18F8722
     2                           	fnconf	rparam,??,?,0
     3                           	opt	pw 120
     4                           	opt	flic
     5                           	psect	nvCOMRAM,global,class=COMRAM,space=1,delta=1,noexec
     6                           	psect	cinit,global,reloc=2,class=CODE,delta=1
     7                           	psect	bssCOMRAM,global,class=COMRAM,space=1,delta=1,noexec
     8                           	psect	cstackCOMRAM,global,class=COMRAM,space=1,delta=1,noexec
     9                           	psect	text0,global,reloc=2,class=CODE,delta=1
    10                           	psect	text1,global,reloc=2,class=CODE,delta=1
    11                           	psect	text2,global,reloc=2,class=CODE,delta=1
    12                           	psect	text3,global,reloc=2,class=CODE,delta=1
    13                           	psect	text4,global,reloc=2,class=CODE,delta=1
    14                           	psect	intcodelo,global,reloc=2,class=CODE,delta=1
    15                           	psect	text6,global,reloc=2,class=CODE,delta=1
    16                           	psect	text7,global,reloc=2,class=CODE,delta=1
    17                           	psect	text8,global,reloc=2,class=CODE,delta=1
    18                           	psect	intsave_regs,global,class=BIGRAM,space=1,delta=1,noexec
    19                           	psect	rparam,global,class=COMRAM,space=1,delta=1,noexec
    20                           	psect	temp,global,ovrld,common,class=COMRAM,space=1,delta=1
    21  0000                     
    22                           ; Version 2.05
    23                           ; Generated 20/12/2018 GMT
    24                           ; 
    25                           ; Copyright © 2018, Microchip Technology Inc. and its subsidiaries ("Microchip")
    26                           ; All rights reserved.
    27                           ; 
    28                           ; This software is developed by Microchip Technology Inc. and its subsidiaries ("Microch
      +                          ip").
    29                           ; 
    30                           ; Redistribution and use in source and binary forms, with or without modification, are
    31                           ; permitted provided that the following conditions are met:
    32                           ; 
    33                           ;     1. Redistributions of source code must retain the above copyright notice, this lis
      +                          t of
    34                           ;        conditions and the following disclaimer.
    35                           ; 
    36                           ;     2. Redistributions in binary form must reproduce the above copyright notice, this 
      +                          list
    37                           ;        of conditions and the following disclaimer in the documentation and/or other
    38                           ;        materials provided with the distribution.
    39                           ; 
    40                           ;     3. Microchip's name may not be used to endorse or promote products derived from th
      +                          is
    41                           ;        software without specific prior written permission.
    42                           ; 
    43                           ; THIS SOFTWARE IS PROVIDED BY MICROCHIP "AS IS" AND ANY EXPRESS OR IMPLIED WARRANTIES,
    44                           ; INCLUDING, BUT NOT LIMITED TO, THE IMPLIED WARRANTIES OF MERCHANTABILITY AND FITNESS F
      +                          OR
    45                           ; PURPOSE ARE DISCLAIMED.  IN NO EVENT SHALL MICROCHIP BE LIABLE FOR ANY DIRECT, INDIREC
      +                          T,
    46                           ; INCIDENTAL, SPECIAL, EXEMPLARY, OR CONSEQUENTIAL DAMAGES (INCLUDING BUT NOT LIMITED TO
    47                           ; PROCUREMENT OF SUBSTITUTE GOODS OR SERVICES; LOSS OF USE, DATA OR PROFITS; OR BUSINESS
    48                           ; INTERRUPTION) HOWSOEVER CAUSED AND ON ANY THEORY OF LIABILITY, WHETHER IN CONTRACT, ST
      +                          RICT
    49                           ; LIABILITY, OR TORT (INCLUDING NEGLIGENCE OR OTHERWISE) ARISING IN ANY WAY OUT OF THE U
      +                          SE OF
    50                           ; THIS SOFTWARE, EVEN IF ADVISED OF THE POSSIBILITY OF SUCH DAMAGE.
    51                           ; 
    52                           ; 
    53                           ; Code-generator required, PIC18F8722 Definitions
    54                           ; 
    55                           ; SFR Addresses
    56  0000                     
    57                           	psect	nvCOMRAM
    58  000004                     __pnvCOMRAM:
    59                           	opt callstack 0
    60  000004                     _dem500ms:
    61                           	opt callstack 0
    62  000004                     	ds	1
    63  0000                     _TMR1	set	4046
    64  0000                     _CCP1CONbits	set	4029
    65  0000                     _CCPR1L	set	4030
    66  0000                     _PR2	set	4043
    67  0000                     _T2CON	set	4042
    68  0000                     _CCP1CON	set	4029
    69  0000                     _TRISCbits	set	3988
    70  0000                     _TRISAbits	set	3986
    71  0000                     _ADCON1	set	4033
    72  0000                     _T1CON	set	4045
    73  0000                     _INTCONbits	set	4082
    74  0000                     _PIE1bits	set	3997
    75  0000                     _IPR1bits	set	3999
    76  0000                     _RCONbits	set	4048
    77  0000                     _TMR1IE	set	31976
    78  0000                     _TMR1ON	set	32360
    79  0000                     _TMR1IF	set	31984
    80                           
    81                           ; #config settings
    82  0000                     
    83                           	psect	cinit
    84  0000D0                     __pcinit:
    85                           	opt callstack 0
    86  0000D0                     start_initialization:
    87                           	opt callstack 0
    88  0000D0                     __initialization:
    89                           	opt callstack 0
    90                           
    91                           ; Clear objects allocated to COMRAM (1 bytes)
    92  0000D0  6A05               	clrf	__pbssCOMRAM& (0+255),c
    93  0000D2                     end_of_initialization:
    94                           	opt callstack 0
    95  0000D2                     __end_of__initialization:
    96                           	opt callstack 0
    97  0000D2  9006               	bcf	int$flags,0,c	;clear compiler interrupt flag (level 1)
    98  0000D4  9206               	bcf	int$flags,1,c	;clear compiler interrupt flag (level 2)
    99  0000D6  0100               	movlb	0
   100  0000D8  EF5A  F000         	goto	_main	;jump to C main() function
   101                           
   102                           	psect	bssCOMRAM
   103  000005                     __pbssCOMRAM:
   104                           	opt callstack 0
   105  000005                     _index:
   106                           	opt callstack 0
   107  000005                     	ds	1
   108                           
   109                           	psect	cstackCOMRAM
   110  000001                     __pcstackCOMRAM:
   111                           	opt callstack 0
   112  000001                     ??_timer1_isr:
   113  000001                     
   114                           ; 1 bytes @ 0x0
   115  000001                     	ds	3
   116  000004                     
   117                           ; 1 bytes @ 0x3
   118 ;;
   119 ;;Main: autosize = 0, tempsize = 0, incstack = 0, save=0
   120 ;;
   121 ;; *************** function _main *****************
   122 ;; Defined at:
   123 ;;		line 60 in file "SangLed_timer.c"
   124 ;; Parameters:    Size  Location     Type
   125 ;;		None
   126 ;; Auto vars:     Size  Location     Type
   127 ;;		None
   128 ;; Return value:  Size  Location     Type
   129 ;;                  1    wreg      void 
   130 ;; Registers used:
   131 ;;		wreg, status,2, cstack
   132 ;; Tracked objects:
   133 ;;		On entry : 0/0
   134 ;;		On exit  : 0/0
   135 ;;		Unchanged: 0/0
   136 ;; Data sizes:     COMRAM   BANK0   BANK1   BANK2   BANK3   BANK4   BANK5   BANK6   BANK7   BANK8   BANK9  BANK10  BANK1
      +1  BANK12  BANK13  BANK14  BANK15
   137 ;;      Params:         0       0       0       0       0       0       0       0       0       0       0       0       
      +0       0       0       0       0
   138 ;;      Locals:         0       0       0       0       0       0       0       0       0       0       0       0       
      +0       0       0       0       0
   139 ;;      Temps:          0       0       0       0       0       0       0       0       0       0       0       0       
      +0       0       0       0       0
   140 ;;      Totals:         0       0       0       0       0       0       0       0       0       0       0       0       
      +0       0       0       0       0
   141 ;;Total ram usage:        0 bytes
   142 ;; Hardware stack levels required when called:    5
   143 ;; This function calls:
   144 ;;		_init
   145 ;;		_pwm_init
   146 ;;		_timer1_init
   147 ;; This function is called by:
   148 ;;		Startup code after reset
   149 ;; This function uses a non-reentrant model
   150 ;;
   151                           
   152                           	psect	text0
   153  0000B4                     __ptext0:
   154                           	opt callstack 0
   155  0000B4                     _main:
   156                           	opt callstack 26
   157                           
   158                           ;SangLed_timer.c: 62:     init();
   159                           
   160                           ;incstack = 0
   161  0000B4  EC6E  F000         	call	_init	;wreg free
   162                           
   163                           ;SangLed_timer.c: 63:     pwm_init();
   164  0000B8  EC28  F000         	call	_pwm_init	;wreg free
   165                           
   166                           ;SangLed_timer.c: 64:     timer1_init();
   167  0000BC  EC40  F000         	call	_timer1_init	;wreg free
   168  0000C0                     l75:
   169  0000C0  D7FF               	goto	l75
   170  0000C2                     __end_of_main:
   171                           	opt callstack 0
   172                           
   173 ;; *************** function _timer1_init *****************
   174 ;; Defined at:
   175 ;;		line 5 in file "Timer.c"
   176 ;; Parameters:    Size  Location     Type
   177 ;;		None
   178 ;; Auto vars:     Size  Location     Type
   179 ;;		None
   180 ;; Return value:  Size  Location     Type
   181 ;;                  1    wreg      void 
   182 ;; Registers used:
   183 ;;		wreg, status,2, cstack
   184 ;; Tracked objects:
   185 ;;		On entry : 0/0
   186 ;;		On exit  : 0/0
   187 ;;		Unchanged: 0/0
   188 ;; Data sizes:     COMRAM   BANK0   BANK1   BANK2   BANK3   BANK4   BANK5   BANK6   BANK7   BANK8   BANK9  BANK10  BANK1
      +1  BANK12  BANK13  BANK14  BANK15
   189 ;;      Params:         0       0       0       0       0       0       0       0       0       0       0       0       
      +0       0       0       0       0
   190 ;;      Locals:         0       0       0       0       0       0       0       0       0       0       0       0       
      +0       0       0       0       0
   191 ;;      Temps:          0       0       0       0       0       0       0       0       0       0       0       0       
      +0       0       0       0       0
   192 ;;      Totals:         0       0       0       0       0       0       0       0       0       0       0       0       
      +0       0       0       0       0
   193 ;;Total ram usage:        0 bytes
   194 ;; Hardware stack levels used:    1
   195 ;; Hardware stack levels required when called:    4
   196 ;; This function calls:
   197 ;;		_timer1_reset
   198 ;; This function is called by:
   199 ;;		_main
   200 ;; This function uses a non-reentrant model
   201 ;;
   202                           
   203                           	psect	text1
   204  000080                     __ptext1:
   205                           	opt callstack 0
   206  000080                     _timer1_init:
   207                           	opt callstack 26
   208                           
   209                           ;Timer.c: 7:     RCONbits.IPEN =1;
   210                           
   211                           ;incstack = 0
   212  000080  8ED0               	bsf	4048,7,c	;volatile
   213                           
   214                           ;Timer.c: 8:     IPR1bits.TMR1IP = 0;
   215  000082  909F               	bcf	3999,0,c	;volatile
   216                           
   217                           ;Timer.c: 9:     PIE1bits.TMR1IE = 1;
   218  000084  809D               	bsf	3997,0,c	;volatile
   219                           
   220                           ;Timer.c: 10:     INTCONbits.GIEH = 1;
   221  000086  8EF2               	bsf	4082,7,c	;volatile
   222                           
   223                           ;Timer.c: 11:     INTCONbits.GIEL = 1;
   224  000088  8CF2               	bsf	4082,6,c	;volatile
   225                           
   226                           ;Timer.c: 12:     T1CON =0b00010000;
   227  00008A  0E10               	movlw	16
   228  00008C  6ECD               	movwf	4045,c	;volatile
   229                           
   230                           ;Timer.c: 13:     timer1_reset();
   231  00008E  EC4A  F000         	call	_timer1_reset	;wreg free
   232  000092  0012               	return		;funcret
   233  000094                     __end_of_timer1_init:
   234                           	opt callstack 0
   235                           
   236 ;; *************** function _timer1_reset *****************
   237 ;; Defined at:
   238 ;;		line 15 in file "Timer.c"
   239 ;; Parameters:    Size  Location     Type
   240 ;;		None
   241 ;; Auto vars:     Size  Location     Type
   242 ;;		None
   243 ;; Return value:  Size  Location     Type
   244 ;;                  1    wreg      void 
   245 ;; Registers used:
   246 ;;		wreg, status,2
   247 ;; Tracked objects:
   248 ;;		On entry : 0/0
   249 ;;		On exit  : 0/0
   250 ;;		Unchanged: 0/0
   251 ;; Data sizes:     COMRAM   BANK0   BANK1   BANK2   BANK3   BANK4   BANK5   BANK6   BANK7   BANK8   BANK9  BANK10  BANK1
      +1  BANK12  BANK13  BANK14  BANK15
   252 ;;      Params:         0       0       0       0       0       0       0       0       0       0       0       0       
      +0       0       0       0       0
   253 ;;      Locals:         0       0       0       0       0       0       0       0       0       0       0       0       
      +0       0       0       0       0
   254 ;;      Temps:          0       0       0       0       0       0       0       0       0       0       0       0       
      +0       0       0       0       0
   255 ;;      Totals:         0       0       0       0       0       0       0       0       0       0       0       0       
      +0       0       0       0       0
   256 ;;Total ram usage:        0 bytes
   257 ;; Hardware stack levels used:    1
   258 ;; Hardware stack levels required when called:    3
   259 ;; This function calls:
   260 ;;		Nothing
   261 ;; This function is called by:
   262 ;;		_timer1_init
   263 ;; This function uses a non-reentrant model
   264 ;;
   265                           
   266                           	psect	text2
   267  000094                     __ptext2:
   268                           	opt callstack 0
   269  000094                     _timer1_reset:
   270                           	opt callstack 26
   271                           
   272                           ;Timer.c: 17:     TMR1IF = 0;
   273                           
   274                           ;incstack = 0
   275  000094  909E               	bcf	3998,0,c	;volatile
   276                           
   277                           ;Timer.c: 18:     TMR1ON = 0;
   278  000096  90CD               	bcf	4045,0,c	;volatile
   279                           
   280                           ;Timer.c: 19:     TMR1 = -12500;
   281  000098  0ECF               	movlw	207
   282  00009A  6ECF               	movwf	4047,c	;volatile
   283  00009C  0E2C               	movlw	44
   284  00009E  6ECE               	movwf	4046,c	;volatile
   285                           
   286                           ;Timer.c: 20:     TMR1ON = 1;
   287  0000A0  80CD               	bsf	4045,0,c	;volatile
   288  0000A2  0012               	return		;funcret
   289  0000A4                     __end_of_timer1_reset:
   290                           	opt callstack 0
   291                           
   292 ;; *************** function _pwm_init *****************
   293 ;; Defined at:
   294 ;;		line 30 in file "SangLed_timer.c"
   295 ;; Parameters:    Size  Location     Type
   296 ;;		None
   297 ;; Auto vars:     Size  Location     Type
   298 ;;		None
   299 ;; Return value:  Size  Location     Type
   300 ;;                  1    wreg      void 
   301 ;; Registers used:
   302 ;;		wreg, status,2
   303 ;; Tracked objects:
   304 ;;		On entry : 0/0
   305 ;;		On exit  : 0/0
   306 ;;		Unchanged: 0/0
   307 ;; Data sizes:     COMRAM   BANK0   BANK1   BANK2   BANK3   BANK4   BANK5   BANK6   BANK7   BANK8   BANK9  BANK10  BANK1
      +1  BANK12  BANK13  BANK14  BANK15
   308 ;;      Params:         0       0       0       0       0       0       0       0       0       0       0       0       
      +0       0       0       0       0
   309 ;;      Locals:         0       0       0       0       0       0       0       0       0       0       0       0       
      +0       0       0       0       0
   310 ;;      Temps:          0       0       0       0       0       0       0       0       0       0       0       0       
      +0       0       0       0       0
   311 ;;      Totals:         0       0       0       0       0       0       0       0       0       0       0       0       
      +0       0       0       0       0
   312 ;;Total ram usage:        0 bytes
   313 ;; Hardware stack levels used:    1
   314 ;; Hardware stack levels required when called:    3
   315 ;; This function calls:
   316 ;;		Nothing
   317 ;; This function is called by:
   318 ;;		_main
   319 ;; This function uses a non-reentrant model
   320 ;;
   321                           
   322                           	psect	text3
   323  000050                     __ptext3:
   324                           	opt callstack 0
   325  000050                     _pwm_init:
   326                           	opt callstack 27
   327                           
   328                           ;SangLed_timer.c: 32:     TRISCbits.RC2 = 0;
   329                           
   330                           ;incstack = 0
   331  000050  9494               	bcf	3988,2,c	;volatile
   332                           
   333                           ;SangLed_timer.c: 33:     CCP1CON = 0x0C;
   334  000052  0E0C               	movlw	12
   335  000054  6EBD               	movwf	4029,c	;volatile
   336                           
   337                           ;SangLed_timer.c: 34:     T2CON = 0x07;
   338  000056  0E07               	movlw	7
   339  000058  6ECA               	movwf	4042,c	;volatile
   340                           
   341                           ;SangLed_timer.c: 35:     PR2 = 159;
   342  00005A  0E9F               	movlw	159
   343  00005C  6ECB               	movwf	4043,c	;volatile
   344                           
   345                           ;SangLed_timer.c: 36:     CCPR1L = 20;
   346  00005E  0E14               	movlw	20
   347  000060  6EBE               	movwf	4030,c	;volatile
   348                           
   349                           ;SangLed_timer.c: 37:     CCP1CONbits.DC1B1 = 0;
   350  000062  9ABD               	bcf	4029,5,c	;volatile
   351                           
   352                           ;SangLed_timer.c: 38:     CCP1CONbits.DC1B0 = 0;
   353  000064  98BD               	bcf	4029,4,c	;volatile
   354  000066  0012               	return		;funcret
   355  000068                     __end_of_pwm_init:
   356                           	opt callstack 0
   357                           
   358 ;; *************** function _init *****************
   359 ;; Defined at:
   360 ;;		line 24 in file "SangLed_timer.c"
   361 ;; Parameters:    Size  Location     Type
   362 ;;		None
   363 ;; Auto vars:     Size  Location     Type
   364 ;;		None
   365 ;; Return value:  Size  Location     Type
   366 ;;                  1    wreg      void 
   367 ;; Registers used:
   368 ;;		wreg, status,2
   369 ;; Tracked objects:
   370 ;;		On entry : 0/0
   371 ;;		On exit  : 0/0
   372 ;;		Unchanged: 0/0
   373 ;; Data sizes:     COMRAM   BANK0   BANK1   BANK2   BANK3   BANK4   BANK5   BANK6   BANK7   BANK8   BANK9  BANK10  BANK1
      +1  BANK12  BANK13  BANK14  BANK15
   374 ;;      Params:         0       0       0       0       0       0       0       0       0       0       0       0       
      +0       0       0       0       0
   375 ;;      Locals:         0       0       0       0       0       0       0       0       0       0       0       0       
      +0       0       0       0       0
   376 ;;      Temps:          0       0       0       0       0       0       0       0       0       0       0       0       
      +0       0       0       0       0
   377 ;;      Totals:         0       0       0       0       0       0       0       0       0       0       0       0       
      +0       0       0       0       0
   378 ;;Total ram usage:        0 bytes
   379 ;; Hardware stack levels used:    1
   380 ;; Hardware stack levels required when called:    3
   381 ;; This function calls:
   382 ;;		Nothing
   383 ;; This function is called by:
   384 ;;		_main
   385 ;; This function uses a non-reentrant model
   386 ;;
   387                           
   388                           	psect	text4
   389  0000DC                     __ptext4:
   390                           	opt callstack 0
   391  0000DC                     _init:
   392                           	opt callstack 27
   393                           
   394                           ;SangLed_timer.c: 26:     ADCON1 = 0x0F;
   395                           
   396                           ;incstack = 0
   397  0000DC  0E0F               	movlw	15
   398  0000DE  6EC1               	movwf	4033,c	;volatile
   399                           
   400                           ;SangLed_timer.c: 27:     TRISAbits.RA5 = 1;
   401  0000E0  8A92               	bsf	3986,5,c	;volatile
   402                           
   403                           ;SangLed_timer.c: 28:     dem500ms = 50;
   404  0000E2  0E32               	movlw	50
   405  0000E4  6E04               	movwf	_dem500ms,c
   406  0000E6  0012               	return		;funcret
   407  0000E8                     __end_of_init:
   408                           	opt callstack 0
   409                           
   410 ;; *************** function _timer1_isr *****************
   411 ;; Defined at:
   412 ;;		line 22 in file "Timer.c"
   413 ;; Parameters:    Size  Location     Type
   414 ;;		None
   415 ;; Auto vars:     Size  Location     Type
   416 ;;		None
   417 ;; Return value:  Size  Location     Type
   418 ;;                  1    wreg      void 
   419 ;; Registers used:
   420 ;;		wreg, status,2, status,0, cstack
   421 ;; Tracked objects:
   422 ;;		On entry : 0/0
   423 ;;		On exit  : 0/0
   424 ;;		Unchanged: 0/0
   425 ;; Data sizes:     COMRAM   BANK0   BANK1   BANK2   BANK3   BANK4   BANK5   BANK6   BANK7   BANK8   BANK9  BANK10  BANK1
      +1  BANK12  BANK13  BANK14  BANK15
   426 ;;      Params:         0       0       0       0       0       0       0       0       0       0       0       0       
      +0       0       0       0       0
   427 ;;      Locals:         0       0       0       0       0       0       0       0       0       0       0       0       
      +0       0       0       0       0
   428 ;;      Temps:          3       0       0       0       0       0       0       0       0       0       0       0       
      +0       0       0       0       0
   429 ;;      Totals:         3       0       0       0       0       0       0       0       0       0       0       0       
      +0       0       0       0       0
   430 ;;Total ram usage:        3 bytes
   431 ;; Hardware stack levels used:    1
   432 ;; Hardware stack levels required when called:    2
   433 ;; This function calls:
   434 ;;		_timer_process
   435 ;;		i1_timer1_reset
   436 ;; This function is called by:
   437 ;;		Interrupt level 1
   438 ;; This function uses a non-reentrant model
   439 ;;
   440                           
   441                           	psect	intcodelo
   442  000018                     __pintcodelo:
   443                           	opt callstack 0
   444  000018                     _timer1_isr:
   445                           	opt callstack 26
   446                           
   447                           ;incstack = 0
   448  000018  8006               	bsf	btemp,0,c	;set compiler interrupt flag (level 1)
   449  00001A  CFD8 F001          	movff	status,??_timer1_isr
   450  00001E  CFE8 F002          	movff	wreg,??_timer1_isr+1
   451  000022  CFE0 F003          	movff	bsr,??_timer1_isr+2
   452                           
   453                           ;Timer.c: 24:     if(TMR1IE & TMR1IF)
   454  000026  0E01               	movlw	1
   455  000028  A09D               	btfss	3997,0,c	;volatile
   456  00002A  0E00               	movlw	0
   457  00002C  A09E               	btfss	3998,0,c	;volatile
   458  00002E  0E00               	movlw	0
   459  000030  A0E8               	btfss	wreg,0,c
   460  000032  D004               	goto	i1l34
   461                           
   462                           ;Timer.c: 25:     {;Timer.c: 26:         timer1_reset();
   463  000034  EC52  F000         	call	i1_timer1_reset	;wreg free
   464                           
   465                           ;Timer.c: 27:         timer_process();
   466  000038  EC61  F000         	call	_timer_process	;wreg free
   467  00003C                     i1l34:
   468  00003C  C003  FFE0         	movff	??_timer1_isr+2,bsr
   469  000040  C002  FFE8         	movff	??_timer1_isr+1,wreg
   470  000044  C001  FFD8         	movff	??_timer1_isr,status
   471  000048  9006               	bcf	btemp,0,c	;clear compiler interrupt flag (level 1)
   472  00004A  0010               	retfie	
   473  00004C                     __end_of_timer1_isr:
   474                           	opt callstack 0
   475                           
   476 ;; *************** function i1_timer1_reset *****************
   477 ;; Defined at:
   478 ;;		line 15 in file "Timer.c"
   479 ;; Parameters:    Size  Location     Type
   480 ;;		None
   481 ;; Auto vars:     Size  Location     Type
   482 ;;		None
   483 ;; Return value:  Size  Location     Type
   484 ;;                  1    wreg      void 
   485 ;; Registers used:
   486 ;;		wreg, status,2
   487 ;; Tracked objects:
   488 ;;		On entry : 0/0
   489 ;;		On exit  : 0/0
   490 ;;		Unchanged: 0/0
   491 ;; Data sizes:     COMRAM   BANK0   BANK1   BANK2   BANK3   BANK4   BANK5   BANK6   BANK7   BANK8   BANK9  BANK10  BANK1
      +1  BANK12  BANK13  BANK14  BANK15
   492 ;;      Params:         0       0       0       0       0       0       0       0       0       0       0       0       
      +0       0       0       0       0
   493 ;;      Locals:         0       0       0       0       0       0       0       0       0       0       0       0       
      +0       0       0       0       0
   494 ;;      Temps:          0       0       0       0       0       0       0       0       0       0       0       0       
      +0       0       0       0       0
   495 ;;      Totals:         0       0       0       0       0       0       0       0       0       0       0       0       
      +0       0       0       0       0
   496 ;;Total ram usage:        0 bytes
   497 ;; Hardware stack levels used:    1
   498 ;; This function calls:
   499 ;;		Nothing
   500 ;; This function is called by:
   501 ;;		_timer1_isr
   502 ;; This function uses a non-reentrant model
   503 ;;
   504                           
   505                           	psect	text6
   506  0000A4                     __ptext6:
   507                           	opt callstack 0
   508  0000A4                     i1_timer1_reset:
   509                           	opt callstack 27
   510                           
   511                           ;Timer.c: 17:     TMR1IF = 0;
   512                           
   513                           ;incstack = 0
   514  0000A4  909E               	bcf	3998,0,c	;volatile
   515                           
   516                           ;Timer.c: 18:     TMR1ON = 0;
   517  0000A6  90CD               	bcf	4045,0,c	;volatile
   518                           
   519                           ;Timer.c: 19:     TMR1 = -12500;
   520  0000A8  0ECF               	movlw	207
   521  0000AA  6ECF               	movwf	4047,c	;volatile
   522  0000AC  0E2C               	movlw	44
   523  0000AE  6ECE               	movwf	4046,c	;volatile
   524                           
   525                           ;Timer.c: 20:     TMR1ON = 1;
   526  0000B0  80CD               	bsf	4045,0,c	;volatile
   527  0000B2  0012               	return		;funcret
   528  0000B4                     __end_ofi1_timer1_reset:
   529                           	opt callstack 0
   530                           
   531 ;; *************** function _timer_process *****************
   532 ;; Defined at:
   533 ;;		line 52 in file "SangLed_timer.c"
   534 ;; Parameters:    Size  Location     Type
   535 ;;		None
   536 ;; Auto vars:     Size  Location     Type
   537 ;;		None
   538 ;; Return value:  Size  Location     Type
   539 ;;                  1    wreg      void 
   540 ;; Registers used:
   541 ;;		wreg, status,2, status,0, cstack
   542 ;; Tracked objects:
   543 ;;		On entry : 0/0
   544 ;;		On exit  : 0/0
   545 ;;		Unchanged: 0/0
   546 ;; Data sizes:     COMRAM   BANK0   BANK1   BANK2   BANK3   BANK4   BANK5   BANK6   BANK7   BANK8   BANK9  BANK10  BANK1
      +1  BANK12  BANK13  BANK14  BANK15
   547 ;;      Params:         0       0       0       0       0       0       0       0       0       0       0       0       
      +0       0       0       0       0
   548 ;;      Locals:         0       0       0       0       0       0       0       0       0       0       0       0       
      +0       0       0       0       0
   549 ;;      Temps:          0       0       0       0       0       0       0       0       0       0       0       0       
      +0       0       0       0       0
   550 ;;      Totals:         0       0       0       0       0       0       0       0       0       0       0       0       
      +0       0       0       0       0
   551 ;;Total ram usage:        0 bytes
   552 ;; Hardware stack levels used:    1
   553 ;; Hardware stack levels required when called:    1
   554 ;; This function calls:
   555 ;;		_Up_dutyCycle
   556 ;; This function is called by:
   557 ;;		_timer1_isr
   558 ;; This function uses a non-reentrant model
   559 ;;
   560                           
   561                           	psect	text7
   562  0000C2                     __ptext7:
   563                           	opt callstack 0
   564  0000C2                     _timer_process:
   565                           	opt callstack 26
   566                           
   567                           ;SangLed_timer.c: 54:     if((--dem500ms)==0)
   568                           
   569                           ;incstack = 0
   570  0000C2  2E04               	decfsz	_dem500ms,f,c
   571  0000C4  0012               	return	
   572                           
   573                           ;SangLed_timer.c: 55:     {;SangLed_timer.c: 56:         Up_dutyCycle();
   574  0000C6  EC34  F000         	call	_Up_dutyCycle	;wreg free
   575                           
   576                           ;SangLed_timer.c: 57:         dem500ms = 50;
   577  0000CA  0E32               	movlw	50
   578  0000CC  6E04               	movwf	_dem500ms,c
   579  0000CE  0012               	return		;funcret
   580  0000D0                     __end_of_timer_process:
   581                           	opt callstack 0
   582                           
   583 ;; *************** function _Up_dutyCycle *****************
   584 ;; Defined at:
   585 ;;		line 41 in file "SangLed_timer.c"
   586 ;; Parameters:    Size  Location     Type
   587 ;;		None
   588 ;; Auto vars:     Size  Location     Type
   589 ;;		None
   590 ;; Return value:  Size  Location     Type
   591 ;;                  1    wreg      void 
   592 ;; Registers used:
   593 ;;		wreg, status,2, status,0
   594 ;; Tracked objects:
   595 ;;		On entry : 0/0
   596 ;;		On exit  : 0/0
   597 ;;		Unchanged: 0/0
   598 ;; Data sizes:     COMRAM   BANK0   BANK1   BANK2   BANK3   BANK4   BANK5   BANK6   BANK7   BANK8   BANK9  BANK10  BANK1
      +1  BANK12  BANK13  BANK14  BANK15
   599 ;;      Params:         0       0       0       0       0       0       0       0       0       0       0       0       
      +0       0       0       0       0
   600 ;;      Locals:         0       0       0       0       0       0       0       0       0       0       0       0       
      +0       0       0       0       0
   601 ;;      Temps:          0       0       0       0       0       0       0       0       0       0       0       0       
      +0       0       0       0       0
   602 ;;      Totals:         0       0       0       0       0       0       0       0       0       0       0       0       
      +0       0       0       0       0
   603 ;;Total ram usage:        0 bytes
   604 ;; Hardware stack levels used:    1
   605 ;; This function calls:
   606 ;;		Nothing
   607 ;; This function is called by:
   608 ;;		_timer_process
   609 ;; This function uses a non-reentrant model
   610 ;;
   611                           
   612                           	psect	text8
   613  000068                     __ptext8:
   614                           	opt callstack 0
   615  000068                     _Up_dutyCycle:
   616                           	opt callstack 26
   617                           
   618                           ;SangLed_timer.c: 43:     CCPR1L += 20;
   619                           
   620                           ;incstack = 0
   621  000068  0E14               	movlw	20
   622  00006A  26BE               	addwf	4030,f,c	;volatile
   623                           
   624                           ;SangLed_timer.c: 44:     index += 1;
   625  00006C  2A05               	incf	_index,f,c
   626                           
   627                           ;SangLed_timer.c: 45:     if(index == 7)
   628  00006E  0E07               	movlw	7
   629  000070  1805               	xorwf	_index,w,c
   630  000072  A4D8               	btfss	status,2,c
   631  000074  0012               	return	
   632                           
   633                           ;SangLed_timer.c: 46:     {;SangLed_timer.c: 47:         index = 0;
   634  000076  0E00               	movlw	0
   635  000078  6E05               	movwf	_index,c
   636                           
   637                           ;SangLed_timer.c: 48:         CCPR1L = 20;
   638  00007A  0E14               	movlw	20
   639  00007C  6EBE               	movwf	4030,c	;volatile
   640  00007E  0012               	return		;funcret
   641  000080                     __end_of_Up_dutyCycle:
   642                           	opt callstack 0
   643  0000                     
   644                           	psect	rparam
   645  0000                     
   646                           	psect	temp
   647  000006                     btemp:
   648                           	opt callstack 0
   649  000006                     	ds	1
   650  0000                     int$flags	set	btemp
   651  0000                     wtemp8	set	btemp+1
   652  0000                     ttemp5	set	btemp+1
   653  0000                     ttemp6	set	btemp+4
   654  0000                     ttemp7	set	btemp+8
   655                           tosu	equ	0xFFF
   656                           tosh	equ	0xFFE
   657                           tosl	equ	0xFFD
   658                           stkptr	equ	0xFFC
   659                           pclatu	equ	0xFFB
   660                           pclath	equ	0xFFA
   661                           pcl	equ	0xFF9
   662                           tblptru	equ	0xFF8
   663                           tblptrh	equ	0xFF7
   664                           tblptrl	equ	0xFF6
   665                           tablat	equ	0xFF5
   666                           prodh	equ	0xFF4
   667                           prodl	equ	0xFF3
   668                           indf0	equ	0xFEF
   669                           postinc0	equ	0xFEE
   670                           postdec0	equ	0xFED
   671                           preinc0	equ	0xFEC
   672                           plusw0	equ	0xFEB
   673                           fsr0h	equ	0xFEA
   674                           fsr0l	equ	0xFE9
   675                           wreg	equ	0xFE8
   676                           indf1	equ	0xFE7
   677                           postinc1	equ	0xFE6
   678                           postdec1	equ	0xFE5
   679                           preinc1	equ	0xFE4
   680                           plusw1	equ	0xFE3
   681                           fsr1h	equ	0xFE2
   682                           fsr1l	equ	0xFE1
   683                           bsr	equ	0xFE0
   684                           indf2	equ	0xFDF
   685                           postinc2	equ	0xFDE
   686                           postdec2	equ	0xFDD
   687                           preinc2	equ	0xFDC
   688                           plusw2	equ	0xFDB
   689                           fsr2h	equ	0xFDA
   690                           fsr2l	equ	0xFD9
   691                           status	equ	0xFD8


Data Sizes:
    Strings     0
    Constant    0
    Data        0
    BSS         1
    Persistent  1
    Stack       0

Auto Spaces:
    Space          Size  Autos    Used
    COMRAM           94      3       5
    BANK0           160      0       0
    BANK1           256      0       0
    BANK2           256      0       0
    BANK3           256      0       0
    BANK4           256      0       0
    BANK5           256      0       0
    BANK6           256      0       0
    BANK7           256      0       0
    BANK8           256      0       0
    BANK9           256      0       0
    BANK10          256      0       0
    BANK11          256      0       0
    BANK12          256      0       0
    BANK13          256      0       0
    BANK14          256      0       0
    BANK15           96      0       0

Pointer List with Targets:

    None.

Critical Paths under _main in COMRAM

    None.

Critical Paths under _timer1_isr in COMRAM

    None.

Critical Paths under _main in BANK0

    None.

Critical Paths under _timer1_isr in BANK0

    None.

Critical Paths under _main in BANK1

    None.

Critical Paths under _timer1_isr in BANK1

    None.

Critical Paths under _main in BANK2

    None.

Critical Paths under _timer1_isr in BANK2

    None.

Critical Paths under _main in BANK3

    None.

Critical Paths under _timer1_isr in BANK3

    None.

Critical Paths under _main in BANK4

    None.

Critical Paths under _timer1_isr in BANK4

    None.

Critical Paths under _main in BANK5

    None.

Critical Paths under _timer1_isr in BANK5

    None.

Critical Paths under _main in BANK6

    None.

Critical Paths under _timer1_isr in BANK6

    None.

Critical Paths under _main in BANK7

    None.

Critical Paths under _timer1_isr in BANK7

    None.

Critical Paths under _main in BANK8

    None.

Critical Paths under _timer1_isr in BANK8

    None.

Critical Paths under _main in BANK9

    None.

Critical Paths under _timer1_isr in BANK9

    None.

Critical Paths under _main in BANK10

    None.

Critical Paths under _timer1_isr in BANK10

    None.

Critical Paths under _main in BANK11

    None.

Critical Paths under _timer1_isr in BANK11

    None.

Critical Paths under _main in BANK12

    None.

Critical Paths under _timer1_isr in BANK12

    None.

Critical Paths under _main in BANK13

    None.

Critical Paths under _timer1_isr in BANK13

    None.

Critical Paths under _main in BANK14

    None.

Critical Paths under _timer1_isr in BANK14

    None.

Critical Paths under _main in BANK15

    None.

Critical Paths under _timer1_isr in BANK15

    None.

Call Graph Tables:

 ---------------------------------------------------------------------------------
 (Depth) Function   	        Calls       Base Space   Used Autos Params    Refs
 ---------------------------------------------------------------------------------
 (0) _main                                                 0     0      0       0
                               _init
                           _pwm_init
                        _timer1_init
 ---------------------------------------------------------------------------------
 (1) _timer1_init                                          0     0      0       0
                       _timer1_reset
 ---------------------------------------------------------------------------------
 (2) _timer1_reset                                         0     0      0       0
 ---------------------------------------------------------------------------------
 (1) _pwm_init                                             0     0      0       0
 ---------------------------------------------------------------------------------
 (1) _init                                                 0     0      0       0
 ---------------------------------------------------------------------------------
 Estimated maximum stack depth 2
 ---------------------------------------------------------------------------------
 (Depth) Function   	        Calls       Base Space   Used Autos Params    Refs
 ---------------------------------------------------------------------------------
 (3) _timer1_isr                                           3     3      0       0
                                              0 COMRAM     3     3      0
                      _timer_process
                     i1_timer1_reset
 ---------------------------------------------------------------------------------
 (4) i1_timer1_reset                                       0     0      0       0
 ---------------------------------------------------------------------------------
 (4) _timer_process                                        0     0      0       0
                       _Up_dutyCycle
 ---------------------------------------------------------------------------------
 (5) _Up_dutyCycle                                         0     0      0       0
 ---------------------------------------------------------------------------------
 Estimated maximum stack depth 5
 ---------------------------------------------------------------------------------

 Call Graph Graphs:

 _main (ROOT)
   _init
   _pwm_init
   _timer1_init
     _timer1_reset

 _timer1_isr (ROOT)
   _timer_process
     _Up_dutyCycle
   i1_timer1_reset

 Address spaces:
Name               Size   Autos  Total    Cost      Usage
BIGRAM             F5F      0       0      37        0.0%
EEDATA             400      0       0       0        0.0%
BITBANK14          100      0       0      33        0.0%
BANK14             100      0       0      34        0.0%
BITBANK13          100      0       0      30        0.0%
BANK13             100      0       0      31        0.0%
BITBANK12          100      0       0      28        0.0%
BANK12             100      0       0      29        0.0%
BITBANK11          100      0       0      26        0.0%
BANK11             100      0       0      27        0.0%
BITBANK10          100      0       0      24        0.0%
BANK10             100      0       0      25        0.0%
BITBANK9           100      0       0      22        0.0%
BANK9              100      0       0      23        0.0%
BITBANK8           100      0       0      20        0.0%
BANK8              100      0       0      21        0.0%
BITBANK7           100      0       0      18        0.0%
BANK7              100      0       0      19        0.0%
BITBANK6           100      0       0      16        0.0%
BANK6              100      0       0      17        0.0%
BITBANK5           100      0       0      14        0.0%
BANK5              100      0       0      15        0.0%
BITBANK4           100      0       0      12        0.0%
BANK4              100      0       0      13        0.0%
BITBANK3           100      0       0      10        0.0%
BANK3              100      0       0      11        0.0%
BITBANK2           100      0       0       8        0.0%
BANK2              100      0       0       9        0.0%
BITBANK1           100      0       0       6        0.0%
BANK1              100      0       0       7        0.0%
BITBANK0            A0      0       0       4        0.0%
BANK0               A0      0       0       5        0.0%
BITBANK15           60      0       0      35        0.0%
BANK15              60      0       0      36        0.0%
BITCOMRAM           5E      0       0       0        0.0%
COMRAM              5E      3       5       1        5.3%
BITSFR               0      0       0     200        0.0%
SFR                  0      0       0     200        0.0%
STACK                0      0       0       2        0.0%
NULL                 0      0       0       0        0.0%
ABS                  0      0       5      32        0.0%
DATA                 0      0       5       3        0.0%
CODE                 0      0       0       0        0.0%


Microchip Technology PIC18 Macro Assembler V2.05 build -831301201 
Symbol Table                                                                                   Tue Nov 26 14:29:28 2019

                     l75 00C0                       bsr 000FE0              __CFG_OSC$HS 000000  
 __end_ofi1_timer1_reset 00B4                      _PR2 000FCB                      wreg 000FE8  
           __CFG_LVP$OFF 000000             __CFG_WDT$OFF 000000                     i1l34 003C  
                   _TMR1 000FCE                     _main 00B4                     _init 00DC  
                   btemp 0006                     start 004C             ___param_bank 000000  
        ??_timer_process 0001                    ?_main 0001                    ?_init 0001  
        ?i1_timer1_reset 0001                    _T1CON 000FCD                    _T2CON 000FCA  
                  _index 0005                    ttemp5 0007                    ttemp6 000A  
                  ttemp7 000E                    status 000FD8                    wtemp8 0007  
        __initialization 00D0             __end_of_main 00C2             __end_of_init 00E8  
                 ??_main 0004                   ??_init 0004            __activetblptr 000000  
                 _ADCON1 000FC1                   _CCPR1L 000FBE                   _TMR1IE 007CE8  
                 _TMR1IF 007CF0                   _TMR1ON 007E68             ?_timer1_init 0001  
       __end_of_pwm_init 0068               __accesstop 0060  __end_of__initialization 00D2  
          ___rparam_used 000001           __pcstackCOMRAM 0001               __pnvCOMRAM 0004  
       ??i1_timer1_reset 0001                  _CCP1CON 000FBD                  __Hparam 0000  
                __Lparam 0000                ?_pwm_init 0001                  __pcinit 00D0  
                __ramtop 1000     __size_of_timer1_init 0014                  __ptext0 00B4  
                __ptext1 0080                  __ptext2 0094                  __ptext3 0050  
                __ptext4 00DC                  __ptext6 00A4                  __ptext7 00C2  
                __ptext8 0068            ?_timer1_reset 0001    __end_of_timer_process 00D0  
   end_of_initialization 00D2            ?_Up_dutyCycle 0001               _timer1_isr 0018  
             ??_pwm_init 0004           ??_timer1_reset 0004                _TRISAbits 000F92  
              _TRISCbits 000F94           ??_Up_dutyCycle 0001              _CCP1CONbits 000FBD  
    start_initialization 00D0              ?_timer1_isr 0001              __pbssCOMRAM 0005  
   __end_of_timer1_reset 00A4     __end_of_Up_dutyCycle 0080              __pintcodelo 0018  
      __size_of_pwm_init 0018      __size_of_timer1_isr 0034                 _IPR1bits 000F9F  
               _PIE1bits 000F9D                 _RCONbits 000FD0            ??_timer1_init 0004  
__size_ofi1_timer1_reset 0010   __size_of_timer_process 000E                 __Hrparam 0000  
               __Lrparam 0000                 _dem500ms 0004      __end_of_timer1_init 0094  
  __size_of_timer1_reset 0010            __size_of_main 000E            __size_of_init 000C  
  __size_of_Up_dutyCycle 0018             ??_timer1_isr 0001                 int$flags 0006  
               _pwm_init 0050             _timer1_reset 0094            _timer_process 00C2  
             _INTCONbits 000FF2                 intlevel1 0000       __end_of_timer1_isr 004C  
           _Up_dutyCycle 0068              _timer1_init 0080           ?_timer_process 0001  
         i1_timer1_reset 00A4  
